target datalayout = "e-m:e-p270:32:32-p271:32:32-p272:64:64-i64:64-i128:128-f80:128-n8:16:32:64-S128"
target triple = "x86_64-pc-linux-gnu"

%struct.nghttp2_session = type { %struct.nghttp2_map, %struct.nghttp2_outbound_queue, %struct.nghttp2_outbound_queue, %struct.nghttp2_outbound_queue, [8 x %struct.anon], %struct.nghttp2_active_outbound_item, %struct.nghttp2_inbound_frame, %struct.nghttp2_hd_deflater, %struct.nghttp2_hd_inflater, %struct.nghttp2_session_callbacks, %struct.nghttp2_mem, ptr, ptr, %struct.nghttp2_ratelim, i64, i64, i64, i64, i64, i64, i64, i64, i64, i64, i64, i64, i64, i64, i32, i32, i32, i32, i32, i32, i32, i32, i32, i32, i32, i32, i8, %struct.nghttp2_settings_storage, %struct.nghttp2_settings_storage, i32, i32, i32, i8, i8, i8, i8, i8, i8, [32 x i8] }
%struct.nghttp2_map = type { ptr, ptr, i64, i64 }
%struct.nghttp2_outbound_queue = type { ptr, ptr, i64 }
%struct.anon = type { %struct.nghttp2_pq }
%struct.nghttp2_pq = type { ptr, ptr, i64, i64, ptr }
%struct.nghttp2_active_outbound_item = type { ptr, %struct.nghttp2_bufs, i32 }
%struct.nghttp2_bufs = type { ptr, ptr, ptr, i64, i64, i64, i64, i64 }
%struct.nghttp2_inbound_frame = type { %union.nghttp2_frame, %union.nghttp2_ext_frame_payload, ptr, %struct.nghttp2_buf, %struct.nghttp2_buf, ptr, i64, i64, i64, i64, i32, [32 x i8] }
%union.nghttp2_frame = type { %struct.nghttp2_headers }
%struct.nghttp2_headers = type { %struct.nghttp2_frame_hd, i64, %struct.nghttp2_priority_spec, ptr, i64, i32 }
%struct.nghttp2_frame_hd = type { i64, i32, i8, i8, i8 }
%struct.nghttp2_priority_spec = type { i32, i32, i8 }
%union.nghttp2_ext_frame_payload = type { %struct.nghttp2_ext_altsvc }
%struct.nghttp2_ext_altsvc = type { ptr, i64, ptr, i64 }
%struct.nghttp2_buf = type { ptr, ptr, ptr, ptr, ptr }
%struct.nghttp2_hd_deflater = type { %struct.nghttp2_hd_context, %struct.nghttp2_hd_map, i64, i64, i8 }
%struct.nghttp2_hd_context = type { %struct.nghttp2_hd_ringbuf, ptr, i64, i64, i32, i8 }
%struct.nghttp2_hd_ringbuf = type { ptr, i64, i64, i64 }
%struct.nghttp2_hd_map = type { [128 x ptr] }
%struct.nghttp2_hd_inflater = type { %struct.nghttp2_hd_context, %struct.nghttp2_hd_huff_decode_context, %struct.nghttp2_buf, %struct.nghttp2_buf, ptr, ptr, ptr, ptr, i64, i64, i64, i64, i64, i32, i32, i8, i8, i8 }
%struct.nghttp2_hd_huff_decode_context = type { i16 }
%struct.nghttp2_session_callbacks = type { ptr, ptr, ptr, ptr, ptr, ptr, ptr, ptr, ptr, ptr, ptr, ptr, ptr, ptr, ptr, ptr, ptr, ptr, ptr, ptr, ptr, ptr, ptr, ptr, ptr, ptr, ptr, ptr }
%struct.nghttp2_mem = type { ptr, ptr, ptr, ptr, ptr }
%struct.nghttp2_ratelim = type { i64, i64, i64, i64 }
%struct.nghttp2_settings_storage = type { i32, i32, i32, i32, i32, i32, i32, i32 }
%struct.nghttp2_outbound_item = type { %union.nghttp2_frame, %union.nghttp2_ext_frame_payload, %union.nghttp2_aux_data, i64, ptr, i8 }
%union.nghttp2_aux_data = type { %struct.nghttp2_headers_aux_data }
%struct.nghttp2_headers_aux_data = type { %struct.nghttp2_data_provider_wrap, ptr, i32, i8 }
%struct.nghttp2_data_provider_wrap = type { i32, %union.anon }
%union.anon = type { %struct.anon.0 }
%struct.anon.0 = type { %union.nghttp2_data_source, ptr }
%union.nghttp2_data_source = type { ptr }
%struct.nghttp2_goaway_aux_data = type { i8 }

; Function Attrs: inlinehint nounwind uwtable
define internal i32 @nghttp2_min_int32(i32 noundef %0, i32 noundef %1) #4 {
  %3 = alloca i32, align 4
  %4 = alloca i32, align 4
  store i32 %0, ptr %3, align 4, !tbaa !3
  store i32 %1, ptr %4, align 4, !tbaa !3
  %5 = load i32, ptr %3, align 4, !tbaa !3
  %6 = load i32, ptr %4, align 4, !tbaa !3
  %7 = icmp slt i32 %5, %6
  br i1 %7, label %8, label %10

8:                                                ; preds = %2
  %9 = load i32, ptr %3, align 4, !tbaa !3
  br label %12

10:                                               ; preds = %2
  %11 = load i32, ptr %4, align 4, !tbaa !3
  br label %12

12:                                               ; preds = %10, %8
  %13 = phi i32 [ %9, %8 ], [ %11, %10 ]
  ret i32 %13
}

; Function Attrs: nounwind uwtable
define hidden i32 @nghttp2_session_is_my_stream_id(ptr noundef %0, i32 noundef %1) #0 {
  %3 = alloca i32, align 4
  %4 = alloca ptr, align 8
  %5 = alloca i32, align 4
  %6 = alloca i32, align 4
  %7 = alloca i32, align 4
  store ptr %0, ptr %4, align 8, !tbaa !7
  store i32 %1, ptr %5, align 4, !tbaa !3
  call void @llvm.lifetime.start.p0(i64 4, ptr %6) #10
  %8 = load i32, ptr %5, align 4, !tbaa !3
  %9 = icmp eq i32 %8, 0
  br i1 %9, label %10, label %11

10:                                               ; preds = %2
  store i32 0, ptr %3, align 4
  store i32 1, ptr %7, align 4
  br label %26

11:                                               ; preds = %2
  %12 = load i32, ptr %5, align 4, !tbaa !3
  %13 = and i32 %12, 1
  store i32 %13, ptr %6, align 4, !tbaa !3
  %14 = load ptr, ptr %4, align 8, !tbaa !7
  %15 = getelementptr inbounds nuw %struct.nghttp2_session, ptr %14, i32 0, i32 49
  %16 = load i8, ptr %15, align 1, !tbaa !42
  %17 = icmp ne i8 %16, 0
  br i1 %17, label %18, label %22

18:                                               ; preds = %11
  %19 = load i32, ptr %6, align 4, !tbaa !3
  %20 = icmp eq i32 %19, 0
  %21 = zext i1 %20 to i32
  store i32 %21, ptr %3, align 4
  store i32 1, ptr %7, align 4
  br label %26

22:                                               ; preds = %11
  %23 = load i32, ptr %6, align 4, !tbaa !3
  %24 = icmp eq i32 %23, 1
  %25 = zext i1 %24 to i32
  store i32 %25, ptr %3, align 4
  store i32 1, ptr %7, align 4
  br label %26

26:                                               ; preds = %22, %18, %10
  call void @llvm.lifetime.end.p0(i64 4, ptr %6) #10
  %27 = load i32, ptr %3, align 4
  ret i32 %27
}

; Function Attrs: nounwind uwtable
define hidden i32 @nghttp2_session_add_goaway(ptr noundef %0, i32 noundef %1, i32 noundef %2, ptr noundef %3, i64 noundef %4, i8 noundef zeroext %5) #0 {
  %7 = alloca i32, align 4
  %8 = alloca ptr, align 8
  %9 = alloca i32, align 4
  %10 = alloca i32, align 4
  %11 = alloca ptr, align 8
  %12 = alloca i64, align 8
  %13 = alloca i8, align 1
  %14 = alloca i32, align 4
  %15 = alloca ptr, align 8
  %16 = alloca ptr, align 8
  %17 = alloca ptr, align 8
  %18 = alloca ptr, align 8
  %19 = alloca ptr, align 8
  %20 = alloca i32, align 4
  store ptr %0, ptr %8, align 8, !tbaa !7
  store i32 %1, ptr %9, align 4, !tbaa !3
  store i32 %2, ptr %10, align 4, !tbaa !3
  store ptr %3, ptr %11, align 8, !tbaa !38
  store i64 %4, ptr %12, align 8, !tbaa !41
  store i8 %5, ptr %13, align 1, !tbaa !117
  call void @llvm.lifetime.start.p0(i64 4, ptr %14) #10
  call void @llvm.lifetime.start.p0(i64 8, ptr %15) #10
  call void @llvm.lifetime.start.p0(i64 8, ptr %16) #10
  call void @llvm.lifetime.start.p0(i64 8, ptr %17) #10
  store ptr null, ptr %17, align 8, !tbaa !38
  call void @llvm.lifetime.start.p0(i64 8, ptr %18) #10
  call void @llvm.lifetime.start.p0(i64 8, ptr %19) #10
  %21 = load ptr, ptr %8, align 8, !tbaa !7
  %22 = getelementptr inbounds nuw %struct.nghttp2_session, ptr %21, i32 0, i32 10
  store ptr %22, ptr %19, align 8, !tbaa !53
  %23 = load ptr, ptr %8, align 8, !tbaa !7
  %24 = load i32, ptr %9, align 4, !tbaa !3
  %25 = call i32 @nghttp2_session_is_my_stream_id(ptr noundef %23, i32 noundef %24)
  %26 = icmp ne i32 %25, 0
  br i1 %26, label %27, label %28

27:                                               ; preds = %6
  store i32 -501, ptr %7, align 4
  store i32 1, ptr %20, align 4
  br label %92

28:                                               ; preds = %6
  %29 = load i64, ptr %12, align 8, !tbaa !41
  %30 = icmp ne i64 %29, 0
  br i1 %30, label %31, label %47

31:                                               ; preds = %28
  %32 = load i64, ptr %12, align 8, !tbaa !41
  %33 = add i64 %32, 8
  %34 = icmp ugt i64 %33, 16384
  br i1 %34, label %35, label %36

35:                                               ; preds = %31
  store i32 -501, ptr %7, align 4
  store i32 1, ptr %20, align 4
  br label %92

36:                                               ; preds = %31
  %37 = load ptr, ptr %19, align 8, !tbaa !53
  %38 = load i64, ptr %12, align 8, !tbaa !41
  %39 = call ptr @nghttp2_mem_malloc(ptr noundef %37, i64 noundef %38)
  store ptr %39, ptr %17, align 8, !tbaa !38
  %40 = load ptr, ptr %17, align 8, !tbaa !38
  %41 = icmp eq ptr %40, null
  br i1 %41, label %42, label %43

42:                                               ; preds = %36
  store i32 -901, ptr %7, align 4
  store i32 1, ptr %20, align 4
  br label %92

43:                                               ; preds = %36
  %44 = load ptr, ptr %17, align 8, !tbaa !38
  %45 = load ptr, ptr %11, align 8, !tbaa !38
  %46 = load i64, ptr %12, align 8, !tbaa !41
  call void @llvm.memcpy.p0.p0.i64(ptr align 1 %44, ptr align 1 %45, i64 %46, i1 false)
  br label %47

47:                                               ; preds = %43, %28
  %48 = load ptr, ptr %19, align 8, !tbaa !53
  %49 = call ptr @nghttp2_mem_malloc(ptr noundef %48, i64 noundef 160)
  store ptr %49, ptr %15, align 8, !tbaa !108
  %50 = load ptr, ptr %15, align 8, !tbaa !108
  %51 = icmp eq ptr %50, null
  br i1 %51, label %52, label %55

52:                                               ; preds = %47
  %53 = load ptr, ptr %19, align 8, !tbaa !53
  %54 = load ptr, ptr %17, align 8, !tbaa !38
  call void @nghttp2_mem_free(ptr noundef %53, ptr noundef %54)
  store i32 -901, ptr %7, align 4
  store i32 1, ptr %20, align 4
  br label %92

55:                                               ; preds = %47
  %56 = load ptr, ptr %15, align 8, !tbaa !108
  call void @nghttp2_outbound_item_init(ptr noundef %56)
  %57 = load ptr, ptr %15, align 8, !tbaa !108
  %58 = getelementptr inbounds nuw %struct.nghttp2_outbound_item, ptr %57, i32 0, i32 0
  store ptr %58, ptr %16, align 8, !tbaa !53
  %59 = load i32, ptr %9, align 4, !tbaa !3
  %60 = load ptr, ptr %8, align 8, !tbaa !7
  %61 = getelementptr inbounds nuw %struct.nghttp2_session, ptr %60, i32 0, i32 33
  %62 = load i32, ptr %61, align 4, !tbaa !63
  %63 = call i32 @nghttp2_min_int32(i32 noundef %59, i32 noundef %62)
  store i32 %63, ptr %9, align 4, !tbaa !3
  %64 = load ptr, ptr %16, align 8, !tbaa !53
  %65 = load i32, ptr %9, align 4, !tbaa !3
  %66 = load i32, ptr %10, align 4, !tbaa !3
  %67 = load ptr, ptr %17, align 8, !tbaa !38
  %68 = load i64, ptr %12, align 8, !tbaa !41
  call void @nghttp2_frame_goaway_init(ptr noundef %64, i32 noundef %65, i32 noundef %66, ptr noundef %67, i64 noundef %68)
  %69 = load ptr, ptr %15, align 8, !tbaa !108
  %70 = getelementptr inbounds nuw %struct.nghttp2_outbound_item, ptr %69, i32 0, i32 2
  store ptr %70, ptr %18, align 8, !tbaa !53
  %71 = load i8, ptr %13, align 1, !tbaa !117
  %72 = load ptr, ptr %18, align 8, !tbaa !53
  %73 = getelementptr inbounds nuw %struct.nghttp2_goaway_aux_data, ptr %72, i32 0, i32 0
  store i8 %71, ptr %73, align 1, !tbaa !162
  %74 = load ptr, ptr %8, align 8, !tbaa !7
  %75 = load ptr, ptr %15, align 8, !tbaa !108
  %76 = call i32 @nghttp2_session_add_item(ptr noundef %74, ptr noundef %75)
  store i32 %76, ptr %14, align 4, !tbaa !3
  %77 = load i32, ptr %14, align 4, !tbaa !3
  %78 = icmp ne i32 %77, 0
  br i1 %78, label %79, label %85

79:                                               ; preds = %55
  %80 = load ptr, ptr %16, align 8, !tbaa !53
  %81 = load ptr, ptr %19, align 8, !tbaa !53
  call void @nghttp2_frame_goaway_free(ptr noundef %80, ptr noundef %81)
  %82 = load ptr, ptr %19, align 8, !tbaa !53
  %83 = load ptr, ptr %15, align 8, !tbaa !108
  call void @nghttp2_mem_free(ptr noundef %82, ptr noundef %83)
  %84 = load i32, ptr %14, align 4, !tbaa !3
  store i32 %84, ptr %7, align 4
  store i32 1, ptr %20, align 4
  br label %92

85:                                               ; preds = %55
  %86 = load ptr, ptr %8, align 8, !tbaa !7
  %87 = getelementptr inbounds nuw %struct.nghttp2_session, ptr %86, i32 0, i32 50
  %88 = load i8, ptr %87, align 4, !tbaa !39
  %89 = zext i8 %88 to i32
  %90 = or i32 %89, 16
  %91 = trunc i32 %90 to i8
  store i8 %91, ptr %87, align 4, !tbaa !39
  store i32 0, ptr %7, align 4
  store i32 1, ptr %20, align 4
  br label %92

92:                                               ; preds = %85, %79, %52, %42, %35, %27
  call void @llvm.lifetime.end.p0(i64 8, ptr %19) #10
  call void @llvm.lifetime.end.p0(i64 8, ptr %18) #10
  call void @llvm.lifetime.end.p0(i64 8, ptr %17) #10
  call void @llvm.lifetime.end.p0(i64 8, ptr %16) #10
  call void @llvm.lifetime.end.p0(i64 8, ptr %15) #10
  call void @llvm.lifetime.end.p0(i64 4, ptr %14) #10
  %93 = load i32, ptr %7, align 4
  ret i32 %93
}