; Function Attrs: nounwind uwtable
define hidden i32 @nghttp2_session_add_goaway(ptr noundef %0, i32 noundef %1, i32 noundef %2, ptr noundef readonly captures(none) %3, i64 noundef %4, i8 noundef zeroext %5) local_unnamed_addr #1 {
  %7 = getelementptr inbounds nuw i8, ptr %0, i64 2344
  %8 = icmp eq i32 %1, 0
  br i1 %8, label %nghttp2_session_is_my_stream_id.exit.thread, label %nghttp2_session_is_my_stream_id.exit

nghttp2_session_is_my_stream_id.exit:             ; preds = %6
  %9 = getelementptr inbounds nuw i8, ptr %0, i64 2675
  %10 = load i8, ptr %9, align 1, !tbaa !37
  %11 = trunc i32 %1 to i1
  %12 = icmp eq i8 %10, 0
  %.not = xor i1 %12, %11
  br i1 %.not, label %nghttp2_session_is_my_stream_id.exit.thread, label %35

nghttp2_session_is_my_stream_id.exit.thread:      ; preds = %6, %nghttp2_session_is_my_stream_id.exit
  %.not41 = icmp eq i64 %4, 0
  br i1 %.not41, label %20, label %13

13:                                               ; preds = %nghttp2_session_is_my_stream_id.exit.thread
  %14 = add i64 %4, -16377
  %15 = icmp ult i64 %14, -16385
  br i1 %15, label %35, label %16

16:                                               ; preds = %13
  %17 = tail call ptr @nghttp2_mem_malloc(ptr noundef nonnull %7, i64 noundef %4) #16
  %18 = icmp eq ptr %17, null
  br i1 %18, label %35, label %19

19:                                               ; preds = %16
  tail call void @llvm.memcpy.p0.p0.i64(ptr nonnull align 1 %17, ptr align 1 %3, i64 %4, i1 false)
  br label %20

20:                                               ; preds = %19, %nghttp2_session_is_my_stream_id.exit.thread
  %.036 = phi ptr [ %17, %19 ], [ null, %nghttp2_session_is_my_stream_id.exit.thread ]
  %21 = tail call ptr @nghttp2_mem_malloc(ptr noundef nonnull %7, i64 noundef 160) #16
  %22 = icmp eq ptr %21, null
  br i1 %22, label %23, label %24

23:                                               ; preds = %20
  tail call void @nghttp2_mem_free(ptr noundef nonnull %7, ptr noundef %.036) #16
  br label %35

24:                                               ; preds = %20
  tail call void @nghttp2_outbound_item_init(ptr noundef nonnull %21) #16
  %25 = getelementptr inbounds nuw i8, ptr %0, i64 2564
  %26 = load i32, ptr %25, align 4, !tbaa !53
  %27 = tail call noundef i32 @llvm.smin.i32(i32 %1, i32 %26)
  tail call void @nghttp2_frame_goaway_init(ptr noundef nonnull %21, i32 noundef %27, i32 noundef %2, ptr noundef %.036, i64 noundef %4) #16
  %28 = getelementptr inbounds nuw i8, ptr %21, i64 96
  store i8 %5, ptr %28, align 1, !tbaa !153
  %29 = tail call i32 @nghttp2_session_add_item(ptr noundef nonnull %0, ptr noundef nonnull %21)
  %.not42 = icmp eq i32 %29, 0
  br i1 %.not42, label %31, label %30

30:                                               ; preds = %24
  tail call void @nghttp2_frame_goaway_free(ptr noundef nonnull %21, ptr noundef nonnull %7) #16
  tail call void @nghttp2_mem_free(ptr noundef nonnull %7, ptr noundef nonnull %21) #16
  br label %35

31:                                               ; preds = %24
  %32 = getelementptr inbounds nuw i8, ptr %0, i64 2676
  %33 = load i8, ptr %32, align 4, !tbaa !3
  %34 = or i8 %33, 16
  store i8 %34, ptr %32, align 4, !tbaa !3
  br label %35

35:                                               ; preds = %16, %13, %nghttp2_session_is_my_stream_id.exit, %31, %30, %23
  %.0 = phi i32 [ -901, %23 ], [ %29, %30 ], [ 0, %31 ], [ -501, %nghttp2_session_is_my_stream_id.exit ], [ -501, %13 ], [ -901, %16 ]
  ret i32 %.0
}